target datalayout = "e-m:e-p270:32:32-p271:32:32-p272:64:64-i64:64-i128:128-f80:128-n8:16:32:64-S128"
target triple = "x86_64-pc-linux-gnu"

%struct._zend_array = type { %struct._zend_refcounted_h, %union.anon.0, i32, %union.anon.1, i32, i32, i32, i32, i64, ptr }
%struct._zend_refcounted_h = type { i32, %union.anon }
%union.anon = type { i32 }
%union.anon.0 = type { i32 }
%union.anon.1 = type { ptr }
%struct._zend_llist = type { ptr, ptr, i64, i64, ptr, i8, ptr }
%struct._zval_struct = type { %union._zend_value, %union.anon.3, %union.anon.6 }
%union._zend_value = type { i64 }
%union.anon.3 = type { i32 }
%union.anon.6 = type { i32 }
%struct._sapi_globals_struct = type { ptr, %struct.sapi_request_info, %struct.sapi_headers_struct, i64, i8, i8, %struct.stat, ptr, ptr, ptr, i64, i32, i8, double, %struct._zend_array, %struct._zval_struct, %struct._zend_fcall_info_cache, %struct.sapi_request_parse_body_context }
%struct.sapi_request_info = type { ptr, ptr, ptr, i64, ptr, ptr, ptr, ptr, i8, i8, i8, ptr, ptr, ptr, ptr, ptr, ptr, ptr, i32, i32, ptr, i32 }
%struct.sapi_headers_struct = type { %struct._zend_llist, i32, i8, ptr, ptr }
%struct.stat = type { i64, i64, i64, i32, i32, i32, i32, i64, i64, i64, i64, %struct.timespec, %struct.timespec, %struct.timespec, [3 x i64] }
%struct.timespec = type { i64, i64 }
%struct._zend_fcall_info_cache = type { ptr, ptr, ptr, ptr, ptr }
%struct.sapi_request_parse_body_context = type { i8, [5 x %struct.anon.7] }
%struct.anon.7 = type { i8, i64 }
%struct.passwd = type { ptr, ptr, i32, i32, ptr, ptr, ptr }

@.str.3 = private unnamed_addr constant [1 x i8] zeroinitializer, align 1
@sapi_globals = external global %struct._sapi_globals_struct, align 8

; Function Attrs: nounwind uwtable
define dso_local ptr @php_get_current_user() #1 {
  %1 = alloca ptr, align 8
  %2 = alloca ptr, align 8
  %3 = alloca i32, align 4
  %4 = alloca ptr, align 8
  call void @llvm.lifetime.start.p0(i64 8, ptr %2) #18
  store ptr null, ptr %2, align 8, !tbaa !95
  %5 = load ptr, ptr getelementptr inbounds nuw (%struct.sapi_request_info, ptr getelementptr inbounds nuw (%struct._sapi_globals_struct, ptr @sapi_globals, i32 0, i32 1), i32 0, i32 17), align 8, !tbaa !97
  %6 = icmp ne ptr %5, null
  br i1 %6, label %7, label %9

7:                                                ; preds = %0
  %8 = load ptr, ptr getelementptr inbounds nuw (%struct.sapi_request_info, ptr getelementptr inbounds nuw (%struct._sapi_globals_struct, ptr @sapi_globals, i32 0, i32 1), i32 0, i32 17), align 8, !tbaa !97
  store ptr %8, ptr %1, align 8
  store i32 1, ptr %3, align 4
  br label %35

9:                                                ; preds = %0
  %10 = call ptr @sapi_get_stat()
  store ptr %10, ptr %2, align 8, !tbaa !95
  %11 = load ptr, ptr %2, align 8, !tbaa !95
  %12 = icmp ne ptr %11, null
  br i1 %12, label %14, label %13

13:                                               ; preds = %9
  store ptr @.str.3, ptr %1, align 8
  store i32 1, ptr %3, align 4
  br label %35

14:                                               ; preds = %9
  call void @llvm.lifetime.start.p0(i64 8, ptr %4) #18
  %15 = load ptr, ptr %2, align 8, !tbaa !95
  %16 = getelementptr inbounds nuw %struct.stat, ptr %15, i32 0, i32 4
  %17 = load i32, ptr %16, align 4, !tbaa !98
  %18 = call ptr @getpwuid(i32 noundef %17)
  store ptr %18, ptr %4, align 8, !tbaa !99
  %19 = icmp eq ptr %18, null
  br i1 %19, label %20, label %21

20:                                               ; preds = %14
  store ptr @.str.3, ptr %1, align 8
  store i32 1, ptr %3, align 4
  br label %34

21:                                               ; preds = %14
  %22 = load ptr, ptr %4, align 8, !tbaa !99
  %23 = getelementptr inbounds nuw %struct.passwd, ptr %22, i32 0, i32 0
  %24 = load ptr, ptr %23, align 8, !tbaa !101
  %25 = call i64 @strlen(ptr noundef %24) #19
  %26 = trunc i64 %25 to i32
  store i32 %26, ptr getelementptr inbounds nuw (%struct.sapi_request_info, ptr getelementptr inbounds nuw (%struct._sapi_globals_struct, ptr @sapi_globals, i32 0, i32 1), i32 0, i32 18), align 8, !tbaa !103
  %27 = load ptr, ptr %4, align 8, !tbaa !99
  %28 = getelementptr inbounds nuw %struct.passwd, ptr %27, i32 0, i32 0
  %29 = load ptr, ptr %28, align 8, !tbaa !101
  %30 = load i32, ptr getelementptr inbounds nuw (%struct.sapi_request_info, ptr getelementptr inbounds nuw (%struct._sapi_globals_struct, ptr @sapi_globals, i32 0, i32 1), i32 0, i32 18), align 8, !tbaa !103
  %31 = sext i32 %30 to i64
  %32 = call noalias ptr @_estrndup(ptr noundef %29, i64 noundef %31)
  store ptr %32, ptr getelementptr inbounds nuw (%struct.sapi_request_info, ptr getelementptr inbounds nuw (%struct._sapi_globals_struct, ptr @sapi_globals, i32 0, i32 1), i32 0, i32 17), align 8, !tbaa !97
  %33 = load ptr, ptr getelementptr inbounds nuw (%struct.sapi_request_info, ptr getelementptr inbounds nuw (%struct._sapi_globals_struct, ptr @sapi_globals, i32 0, i32 1), i32 0, i32 17), align 8, !tbaa !97
  store ptr %33, ptr %1, align 8
  store i32 1, ptr %3, align 4
  br label %34

34:                                               ; preds = %21, %20
  call void @llvm.lifetime.end.p0(i64 8, ptr %4) #18
  br label %35

35:                                               ; preds = %34, %13, %7
  call void @llvm.lifetime.end.p0(i64 8, ptr %2) #18
  %36 = load ptr, ptr %1, align 8
  ret ptr %36
}