; Function Attrs: nounwind uwtable
define dso_local ptr @php_get_current_user() local_unnamed_addr #2 {
  %1 = load ptr, ptr getelementptr inbounds nuw (i8, ptr @sapi_globals, i64 128), align 8, !tbaa !88
  %.not = icmp eq ptr %1, null
  br i1 %.not, label %2, label %15

2:                                                ; preds = %0
  %3 = tail call ptr @sapi_get_stat() #28
  %.not8 = icmp eq ptr %3, null
  br i1 %.not8, label %15, label %4

4:                                                ; preds = %2
  %5 = getelementptr inbounds nuw i8, ptr %3, i64 28
  %6 = load i32, ptr %5, align 4, !tbaa !89
  %7 = tail call ptr @getpwuid(i32 noundef %6) #28
  %8 = icmp eq ptr %7, null
  br i1 %8, label %15, label %9

9:                                                ; preds = %4
  %10 = load ptr, ptr %7, align 8, !tbaa !90
  %11 = tail call i64 @strlen(ptr noundef nonnull dereferenceable(1) %10) #29
  %12 = trunc i64 %11 to i32
  store i32 %12, ptr getelementptr inbounds nuw (i8, ptr @sapi_globals, i64 136), align 8, !tbaa !92
  %sext = shl i64 %11, 32
  %13 = ashr exact i64 %sext, 32
  %14 = tail call noalias ptr @_estrndup(ptr noundef nonnull %10, i64 noundef %13) #28
  store ptr %14, ptr getelementptr inbounds nuw (i8, ptr @sapi_globals, i64 128), align 8, !tbaa !88
  br label %15

15:                                               ; preds = %9, %4, %2, %0
  %.0 = phi ptr [ %1, %0 ], [ @.str.3, %2 ], [ %14, %9 ], [ @.str.3, %4 ]
  ret ptr %.0
}